(dp0
S'flags'
p1
(dp2
S'__flagdata__'
p3
(dp4
S'requirement'
p5
(dp6
S'default'
p7
I3
sS'max'
p8
I5
sS'min'
p9
I0
ssS'graveseen'
p10
(dp11
S'default'
p12
I1
sS'max'
p13
I3
sS'min'
p14
I0
ssS'itm_nail'
p15
(dp16
S'default'
p17
I1
ssS'clu_smash'
p18
(dp19
S'default'
p20
I1
ssS'itm_hammer'
p21
(dp22
S'default'
p23
I1
ssS'lnk_mailbox'
p24
(dp25
S'default'
p26
I0
ssS'zombies'
p27
(dp28
S'default'
p29
I1
sS'max'
p30
I1
sS'min'
p31
I0
ssS'test'
p32
(dp33
S'default'
p34
I0
ssS'mailfire'
p35
(dp36
S'default'
p37
I0
sS'max'
p38
I2
sS'min'
p39
I0
ssS'goblin'
p40
(dp41
S'default'
p42
I0
ssssS'scene'
p43
S'start'
p44
sS'previous'
p45
Ns.