(dp0
S'flags'
p1
(dp2
S'smash'
p3
I0
sS'clu_smash'
p4
I1
sS'exam_hammer'
p5
I0
sS'itm_nail'
p6
I1
sS'lnk_power'
p7
I1
sS'__flagdata__'
p8
(dp9
S'requirement'
p10
(dp11
S'default'
p12
I3
sS'max'
p13
I5
sS'min'
p14
I0
ssS'graveseen'
p15
(dp16
S'default'
p17
I1
sS'max'
p18
I3
sS'min'
p19
I0
ssS'itm_nail'
p20
(dp21
S'default'
p22
I1
ssS'clu_smash'
p23
(dp24
S'default'
p25
I1
ssS'itm_hammer'
p26
(dp27
S'default'
p28
I1
ssS'lnk_mailbox'
p29
(dp30
S'default'
p31
I0
ssS'zombies'
p32
(dp33
S'default'
p34
I1
sS'max'
p35
I1
sS'min'
p36
I0
ssS'test'
p37
(dp38
S'default'
p39
I0
ssS'mailfire'
p40
(dp41
S'default'
p42
I0
sS'max'
p43
I2
sS'min'
p44
I0
ssS'goblin'
p45
(dp46
S'default'
p47
I1
sssS'itm_hammer'
p48
I1
ssS'scene'
p49
S'field'
p50
sS'previous'
p51
S'start'
p52
s.